; Function Attrs: mustprogress uwtable
define internal noundef zeroext i1 @_ZNK7testing8internal30ValuesInIteratorRangeGeneratorIN12_GLOBAL__N_15ParamEE8Iterator6EqualsERKNS0_22ParamIteratorInterfaceIS3_EE(ptr noundef nonnull align 8 dereferenceable(32) %0, ptr noundef nonnull align 8 dereferenceable(8) %1) unnamed_addr #5 align 2 personality ptr @__gxx_personality_v0 {
  %3 = alloca %"class.testing::internal::GTestLog", align 4
  %4 = alloca %"class.testing::internal::GTestLog", align 4
  %5 = load ptr, ptr %0, align 8, !tbaa !28
  %6 = getelementptr inbounds nuw i8, ptr %5, i64 16
  %7 = load ptr, ptr %6, align 8
  %8 = tail call noundef ptr %7(ptr noundef nonnull align 8 dereferenceable(32) %0)
  %9 = load ptr, ptr %1, align 8, !tbaa !28
  %10 = getelementptr inbounds nuw i8, ptr %9, i64 16
  %11 = load ptr, ptr %10, align 8
  %12 = tail call noundef ptr %11(ptr noundef nonnull align 8 dereferenceable(8) %1)
  %13 = icmp eq ptr %8, %12
  %14 = tail call noundef zeroext i1 @_ZN7testing8internal6IsTrueEb(i1 noundef zeroext %13)
  br i1 %14, label %40, label %15

15:                                               ; preds = %2
  call void @llvm.lifetime.start.p0(i64 4, ptr nonnull %4) #40
  call void @_ZN7testing8internal8GTestLogC1ENS0_16GTestLogSeverityEPKci(ptr noundef nonnull align 4 dereferenceable(4) %4, i32 noundef 3, ptr noundef nonnull @.str.57, i32 noundef 346)
  %16 = invoke noundef nonnull align 8 dereferenceable(8) ptr @_ZSt16__ostream_insertIcSt11char_traitsIcEERSt13basic_ostreamIT_T0_ES6_PKS3_l(ptr noundef nonnull align 8 dereferenceable(8) @_ZSt4cerr, ptr noundef nonnull @.str.58, i64 noundef 59)
          to label %_ZStlsISt11char_traitsIcEERSt13basic_ostreamIcT_ES5_PKc.exit unwind label %38

_ZStlsISt11char_traitsIcEERSt13basic_ostreamIcT_ES5_PKc.exit: ; preds = %15
  %17 = invoke noundef nonnull align 8 dereferenceable(8) ptr @_ZSt16__ostream_insertIcSt11char_traitsIcEERSt13basic_ostreamIT_T0_ES6_PKS3_l(ptr noundef nonnull align 8 dereferenceable(8) @_ZSt4cerr, ptr noundef nonnull @.str.59, i64 noundef 43)
          to label %_ZStlsISt11char_traitsIcEERSt13basic_ostreamIcT_ES5_PKc.exit5 unwind label %38

_ZStlsISt11char_traitsIcEERSt13basic_ostreamIcT_ES5_PKc.exit5: ; preds = %_ZStlsISt11char_traitsIcEERSt13basic_ostreamIcT_ES5_PKc.exit
  %18 = invoke noundef nonnull align 8 dereferenceable(8) ptr @_ZSt16__ostream_insertIcSt11char_traitsIcEERSt13basic_ostreamIT_T0_ES6_PKS3_l(ptr noundef nonnull align 8 dereferenceable(8) @_ZSt4cerr, ptr noundef nonnull @.str.60, i64 noundef 26)
          to label %_ZStlsISt11char_traitsIcEERSt13basic_ostreamIcT_ES5_PKc.exit6 unwind label %38

_ZStlsISt11char_traitsIcEERSt13basic_ostreamIcT_ES5_PKc.exit6: ; preds = %_ZStlsISt11char_traitsIcEERSt13basic_ostreamIcT_ES5_PKc.exit5
  %19 = load ptr, ptr @_ZSt4cerr, align 8, !tbaa !28
  %20 = getelementptr i8, ptr %19, i64 -24
  %21 = load i64, ptr %20, align 8
  %22 = getelementptr inbounds i8, ptr @_ZSt4cerr, i64 %21
  %23 = getelementptr inbounds nuw i8, ptr %22, i64 240
  %24 = load ptr, ptr %23, align 8, !tbaa !171
  %.not.i.i.i = icmp eq ptr %24, null
  br i1 %.not.i.i.i, label %25, label %_ZSt13__check_facetISt5ctypeIcEERKT_PS3_.exit.i.i

25:                                               ; preds = %_ZStlsISt11char_traitsIcEERSt13basic_ostreamIcT_ES5_PKc.exit6
  invoke void @_ZSt16__throw_bad_castv() #39
          to label %.noexc unwind label %38

.noexc:                                           ; preds = %25
  unreachable

_ZSt13__check_facetISt5ctypeIcEERKT_PS3_.exit.i.i: ; preds = %_ZStlsISt11char_traitsIcEERSt13basic_ostreamIcT_ES5_PKc.exit6
  %26 = getelementptr inbounds nuw i8, ptr %24, i64 56
  %27 = load i8, ptr %26, align 8, !tbaa !178
  %.not.i1.i.i = icmp eq i8 %27, 0
  br i1 %.not.i1.i.i, label %31, label %28

28:                                               ; preds = %_ZSt13__check_facetISt5ctypeIcEERKT_PS3_.exit.i.i
  %29 = getelementptr inbounds nuw i8, ptr %24, i64 67
  %30 = load i8, ptr %29, align 1, !tbaa !17
  br label %_ZNKSt9basic_iosIcSt11char_traitsIcEE5widenEc.exit.i

31:                                               ; preds = %_ZSt13__check_facetISt5ctypeIcEERKT_PS3_.exit.i.i
  invoke void @_ZNKSt5ctypeIcE13_M_widen_initEv(ptr noundef nonnull align 8 dereferenceable(570) %24)
          to label %.noexc7 unwind label %38

.noexc7:                                          ; preds = %31
  %32 = load ptr, ptr %24, align 8, !tbaa !28
  %33 = getelementptr inbounds nuw i8, ptr %32, i64 48
  %34 = load ptr, ptr %33, align 8
  %35 = invoke noundef signext i8 %34(ptr noundef nonnull align 8 dereferenceable(570) %24, i8 noundef signext 10)
          to label %_ZNKSt9basic_iosIcSt11char_traitsIcEE5widenEc.exit.i unwind label %38

_ZNKSt9basic_iosIcSt11char_traitsIcEE5widenEc.exit.i: ; preds = %.noexc7, %28
  %.0.i.i.i = phi i8 [ %30, %28 ], [ %35, %.noexc7 ]
  %36 = invoke noundef nonnull align 8 dereferenceable(8) ptr @_ZNSo3putEc(ptr noundef nonnull align 8 dereferenceable(8) @_ZSt4cerr, i8 noundef signext %.0.i.i.i)
          to label %.noexc9 unwind label %38

.noexc9:                                          ; preds = %_ZNKSt9basic_iosIcSt11char_traitsIcEE5widenEc.exit.i
  %37 = invoke noundef nonnull align 8 dereferenceable(8) ptr @_ZNSo5flushEv(ptr noundef nonnull align 8 dereferenceable(8) %36)
          to label %_ZNSolsEPFRSoS_E.exit unwind label %38

_ZNSolsEPFRSoS_E.exit:                            ; preds = %.noexc9
  call void @_ZN7testing8internal8GTestLogD1Ev(ptr noundef nonnull align 4 dereferenceable(4) %4) #40
  call void @llvm.lifetime.end.p0(i64 4, ptr nonnull %4) #40
  br label %40

common.resume:                                    ; preds = %46, %38
  %common.resume.op = phi { ptr, i32 } [ %39, %38 ], [ %47, %46 ]
  resume { ptr, i32 } %common.resume.op

38:                                               ; preds = %.noexc9, %_ZNKSt9basic_iosIcSt11char_traitsIcEE5widenEc.exit.i, %.noexc7, %31, %25, %_ZStlsISt11char_traitsIcEERSt13basic_ostreamIcT_ES5_PKc.exit5, %_ZStlsISt11char_traitsIcEERSt13basic_ostreamIcT_ES5_PKc.exit, %15
  %39 = landingpad { ptr, i32 }
          cleanup
  call void @_ZN7testing8internal8GTestLogD1Ev(ptr noundef nonnull align 4 dereferenceable(4) %4) #40
  call void @llvm.lifetime.end.p0(i64 4, ptr nonnull %4) #40
  br label %common.resume

40:                                               ; preds = %2, %_ZNSolsEPFRSoS_E.exit
  %41 = call ptr @__dynamic_cast(ptr nonnull readonly %1, ptr nonnull @_ZTIN7testing8internal22ParamIteratorInterfaceIN12_GLOBAL__N_15ParamEEE, ptr nonnull @_ZTIN7testing8internal30ValuesInIteratorRangeGeneratorIN12_GLOBAL__N_15ParamEE8IteratorE, i64 0) #40
  %42 = icmp ne ptr %41, null
  %43 = call noundef zeroext i1 @_ZN7testing8internal6IsTrueEb(i1 noundef zeroext %42)
  br i1 %43, label %_ZN7testing8internal27CheckedDowncastToActualTypeIKNS0_30ValuesInIteratorRangeGeneratorIN12_GLOBAL__N_15ParamEE8IteratorEKNS0_22ParamIteratorInterfaceIS4_EEEEPT_PT0_.exit, label %44

44:                                               ; preds = %40
  call void @llvm.lifetime.start.p0(i64 4, ptr nonnull %3) #40
  call void @_ZN7testing8internal8GTestLogC1ENS0_16GTestLogSeverityEPKci(ptr noundef nonnull align 4 dereferenceable(4) %3, i32 noundef 3, ptr noundef nonnull @.str.61, i32 noundef 1194)
  %45 = invoke noundef nonnull align 8 dereferenceable(8) ptr @_ZSt16__ostream_insertIcSt11char_traitsIcEERSt13basic_ostreamIT_T0_ES6_PKS3_l(ptr noundef nonnull align 8 dereferenceable(8) @_ZSt4cerr, ptr noundef nonnull @.str.62, i64 noundef 77)
          to label %_ZStlsISt11char_traitsIcEERSt13basic_ostreamIcT_ES5_PKc.exit.i unwind label %46

_ZStlsISt11char_traitsIcEERSt13basic_ostreamIcT_ES5_PKc.exit.i: ; preds = %44
  call void @_ZN7testing8internal8GTestLogD1Ev(ptr noundef nonnull align 4 dereferenceable(4) %3) #40
  call void @llvm.lifetime.end.p0(i64 4, ptr nonnull %3) #40
  br label %_ZN7testing8internal27CheckedDowncastToActualTypeIKNS0_30ValuesInIteratorRangeGeneratorIN12_GLOBAL__N_15ParamEE8IteratorEKNS0_22ParamIteratorInterfaceIS4_EEEEPT_PT0_.exit

46:                                               ; preds = %44
  %47 = landingpad { ptr, i32 }
          cleanup
  call void @_ZN7testing8internal8GTestLogD1Ev(ptr noundef nonnull align 4 dereferenceable(4) %3) #40
  call void @llvm.lifetime.end.p0(i64 4, ptr nonnull %3) #40
  br label %common.resume

_ZN7testing8internal27CheckedDowncastToActualTypeIKNS0_30ValuesInIteratorRangeGeneratorIN12_GLOBAL__N_15ParamEE8IteratorEKNS0_22ParamIteratorInterfaceIS4_EEEEPT_PT0_.exit: ; preds = %40, %_ZStlsISt11char_traitsIcEERSt13basic_ostreamIcT_ES5_PKc.exit.i
  %48 = getelementptr inbounds nuw i8, ptr %0, i64 16
  %49 = getelementptr inbounds nuw i8, ptr %1, i64 16
  %.val = load ptr, ptr %48, align 8, !tbaa !81
  %.val4 = load ptr, ptr %49, align 8, !tbaa !81
  %50 = icmp eq ptr %.val, %.val4
  ret i1 %50
}